target datalayout = "e-m:e-p270:32:32-p271:32:32-p272:64:64-i64:64-i128:128-f80:128-n8:16:32:64-S128"
target triple = "x86_64-pc-linux-gnu"

%struct._psqlSettings = type { ptr, i32, ptr, i8, ptr, ptr, %struct.printQueryOpt, ptr, ptr, ptr, i8, i8, i32, i32, ptr, ptr, i8, [4 x ptr], i8, i32, ptr, i8, i32, ptr, ptr, i64, i64, i8, ptr, ptr, ptr, i8, i8, i8, i8, i8, i8, i8, i32, i32, i32, i32, i32, i32, i32, i32, ptr, ptr, ptr, i32, i8, i32 }
%struct.printQueryOpt = type { %struct.printTableOpt, ptr, ptr, ptr, i8, ptr, i32 }
%struct.printTableOpt = type { i32, i16, i32, i32, i16, i16, i32, i8, i8, i8, i8, i64, ptr, %struct.separator, %struct.separator, [2 x i8], i8, ptr, i32, i32, i32, i32, i32, i32 }
%struct.separator = type { ptr, i8 }

@pset = dso_local global %struct._psqlSettings zeroinitializer, align 8

; Function Attrs: nounwind uwtable
define internal void @log_locus_callback(ptr noundef %0, ptr noundef %1) #0 {
  %3 = alloca ptr, align 8
  %4 = alloca ptr, align 8
  store ptr %0, ptr %3, align 8
  store ptr %1, ptr %4, align 8
  %5 = load ptr, ptr getelementptr inbounds nuw (%struct._psqlSettings, ptr @pset, i32 0, i32 24), align 8
  %6 = icmp ne ptr %5, null
  br i1 %6, label %7, label %12

7:                                                ; preds = %2
  %8 = load ptr, ptr getelementptr inbounds nuw (%struct._psqlSettings, ptr @pset, i32 0, i32 24), align 8
  %9 = load ptr, ptr %3, align 8
  store ptr %8, ptr %9, align 8
  %10 = load i64, ptr getelementptr inbounds nuw (%struct._psqlSettings, ptr @pset, i32 0, i32 25), align 8
  %11 = load ptr, ptr %4, align 8
  store i64 %10, ptr %11, align 8
  br label %15

12:                                               ; preds = %2
  %13 = load ptr, ptr %3, align 8
  store ptr null, ptr %13, align 8
  %14 = load ptr, ptr %4, align 8
  store i64 0, ptr %14, align 8
  br label %15

15:                                               ; preds = %12, %7
  ret void
}