; Function Attrs: mustprogress nofree norecurse nosync nounwind willreturn memory(read, argmem: write, inaccessiblemem: none) uwtable
define internal void @log_locus_callback(ptr noundef writeonly captures(none) initializes((0, 8)) %0, ptr noundef writeonly captures(none) initializes((0, 8)) %1) #4 {
  %3 = load ptr, ptr getelementptr inbounds nuw (i8, ptr @pset, i64 344), align 8
  %.not = icmp eq ptr %3, null
  br i1 %.not, label %6, label %4

4:                                                ; preds = %2
  store ptr %3, ptr %0, align 8
  %5 = load i64, ptr getelementptr inbounds nuw (i8, ptr @pset, i64 352), align 8
  br label %7

6:                                                ; preds = %2
  store ptr null, ptr %0, align 8
  br label %7

7:                                                ; preds = %6, %4
  %storemerge = phi i64 [ 0, %6 ], [ %5, %4 ]
  store i64 %storemerge, ptr %1, align 8
  ret void
}